Certificate:
    Data:
        Version: 3 (0x2)
        Serial Number: 1 (0x1)
    Signature Algorithm: sha256WithRSAEncryption
        Issuer: C=CH, ST=Zurich, L=Zurich, O=iMovies, CN=iMovies CA
        Validity
            Not Before: Nov 23 21:45:19 2016 GMT
            Not After : Nov 23 21:45:19 2017 GMT
        Subject: C=CH, ST=Zuerich, O=iMovies, OU=server, CN=192.168.56.2/emailAddress=ws@imovies.org
        Subject Public Key Info:
            Public Key Algorithm: rsaEncryption
                Public-Key: (2048 bit)
                Modulus:
                    00:e8:3a:60:59:33:04:e7:36:04:2d:d1:4b:40:97:
                    36:72:99:7c:33:27:61:a9:70:4c:75:4b:ae:03:eb:
                    70:b8:9b:97:dc:98:0e:16:7c:ca:44:aa:6f:0d:38:
                    db:b2:71:09:19:57:57:d1:1b:8e:a5:6f:2a:11:2b:
                    5c:1b:49:f6:c0:90:2b:d3:ba:59:e8:3f:55:27:05:
                    42:ae:db:15:23:fd:42:2d:9d:a1:42:04:c0:90:bc:
                    7c:3c:35:4f:f3:4a:50:1c:02:63:72:b0:11:cf:45:
                    25:68:bf:2f:dd:85:ec:34:a4:42:98:07:81:82:7e:
                    4c:30:92:5d:86:06:f9:6a:8b:16:29:6c:1d:0b:f9:
                    e8:ab:5e:f9:70:41:7b:3f:47:c3:98:18:98:1f:37:
                    5e:8d:54:de:17:de:e6:07:39:bb:7a:9a:90:7c:c8:
                    8b:06:ad:f0:ed:db:8e:ac:a0:ad:4e:fc:cd:97:29:
                    5f:d9:37:82:0f:71:72:e5:7a:33:16:dc:e8:fd:bf:
                    e1:67:80:1b:91:c4:51:24:96:88:2a:14:7a:e0:e9:
                    4d:a1:4c:39:34:a9:66:05:62:a4:6b:4d:36:5d:01:
                    aa:db:45:b2:fb:9d:52:1f:d9:dd:55:e9:e8:da:f8:
                    f0:d4:b3:10:74:34:c0:52:6b:fc:9d:5b:3b:ea:6c:
                    85:87
                Exponent: 65537 (0x10001)
        X509v3 extensions:
            X509v3 Basic Constraints: 
                CA:FALSE
            Netscape Comment: 
                OpenSSL Generated Certificate
            X509v3 Subject Key Identifier: 
                E1:DB:EC:ED:B2:8F:2C:46:ED:82:AF:D8:92:FE:39:0A:A0:37:50:74
            X509v3 Authority Key Identifier: 
                keyid:10:E8:12:F4:BA:E7:3E:B5:61:62:64:00:CC:2F:1A:8B:E2:AB:D5:6D

    Signature Algorithm: sha256WithRSAEncryption
         84:5e:91:96:8e:c2:8f:05:da:82:b4:25:49:22:25:db:b9:6c:
         b4:99:09:62:79:60:5d:c5:b4:7f:6f:90:5a:c2:14:55:1a:7d:
         29:0e:ed:85:02:8b:8f:14:6b:d8:5d:be:68:9f:d8:e6:4d:52:
         4d:bb:86:86:95:1d:85:69:95:a0:7d:ba:93:85:b0:2e:e9:0b:
         9f:07:ae:bf:6d:69:8b:75:03:06:25:83:7c:3e:5b:89:e5:72:
         0f:70:b3:76:92:1f:32:bd:05:2a:ef:d7:14:d6:aa:47:c8:a8:
         4b:fd:67:36:52:27:3d:a6:ec:31:0e:a5:fa:4e:f8:61:bb:eb:
         2a:ee:2a:b8:35:43:f9:df:77:90:8f:f0:bf:10:31:0a:78:a5:
         b9:fc:82:60:fd:09:bc:66:d1:6c:db:21:dc:a8:8a:1b:9c:bf:
         40:de:3d:93:db:ca:28:c2:31:99:a4:97:9e:b0:9e:8e:88:c6:
         73:dd:57:be:87:c0:dc:77:98:f2:f3:24:90:04:19:8a:ed:2b:
         59:c0:44:04:8e:30:b1:fa:11:04:f6:0e:5f:2b:a6:31:a3:6e:
         3b:5a:89:dc:10:66:c7:f7:50:d9:f1:fb:13:92:b2:8f:d3:15:
         0e:23:a5:3e:bc:55:4f:5d:3e:b2:50:40:f0:d3:7c:08:81:db:
         66:c0:5b:55
-----BEGIN CERTIFICATE-----
MIIDxDCCAqygAwIBAgIBATANBgkqhkiG9w0BAQsFADBWMQswCQYDVQQGEwJDSDEP
MA0GA1UECAwGWnVyaWNoMQ8wDQYDVQQHDAZadXJpY2gxEDAOBgNVBAoMB2lNb3Zp
ZXMxEzARBgNVBAMMCmlNb3ZpZXMgQ0EwHhcNMTYxMTIzMjE0NTE5WhcNMTcxMTIz
MjE0NTE5WjB4MQswCQYDVQQGEwJDSDEQMA4GA1UECAwHWnVlcmljaDEQMA4GA1UE
CgwHaU1vdmllczEPMA0GA1UECwwGc2VydmVyMRUwEwYDVQQDDAwxOTIuMTY4LjU2
LjIxHTAbBgkqhkiG9w0BCQEWDndzQGltb3ZpZXMub3JnMIIBIjANBgkqhkiG9w0B
AQEFAAOCAQ8AMIIBCgKCAQEA6DpgWTME5zYELdFLQJc2cpl8MydhqXBMdUuuA+tw
uJuX3JgOFnzKRKpvDTjbsnEJGVdX0RuOpW8qEStcG0n2wJAr07pZ6D9VJwVCrtsV
I/1CLZ2hQgTAkLx8PDVP80pQHAJjcrARz0UlaL8v3YXsNKRCmAeBgn5MMJJdhgb5
aosWKWwdC/noq175cEF7P0fDmBiYHzdejVTeF97mBzm7epqQfMiLBq3w7duOrKCt
TvzNlylf2TeCD3Fy5XozFtzo/b/hZ4AbkcRRJJaIKhR64OlNoUw5NKlmBWKka002
XQGq20Wy+51SH9ndVeno2vjw1LMQdDTAUmv8nVs76myFhwIDAQABo3sweTAJBgNV
HRMEAjAAMCwGCWCGSAGG+EIBDQQfFh1PcGVuU1NMIEdlbmVyYXRlZCBDZXJ0aWZp
Y2F0ZTAdBgNVHQ4EFgQU4dvs7bKPLEbtgq/Ykv45CqA3UHQwHwYDVR0jBBgwFoAU
EOgS9LrnPrVhYmQAzC8ai+Kr1W0wDQYJKoZIhvcNAQELBQADggEBAIRekZaOwo8F
2oK0JUkiJdu5bLSZCWJ5YF3FtH9vkFrCFFUafSkO7YUCi48Ua9hdvmif2OZNUk27
hoaVHYVplaB9upOFsC7pC58Hrr9taYt1AwYlg3w+W4nlcg9ws3aSHzK9BSrv1xTW
qkfIqEv9ZzZSJz2m7DEOpfpO+GG76yruKrg1Q/nfd5CP8L8QMQp4pbn8gmD9Cbxm
0WzbIdyoihucv0DePZPbyijCMZmkl56wno6IxnPdV76HwNx3mPLzJJAEGYrtK1nA
RASOMLH6EQT2Dl8rpjGjbjtaidwQZsf3UNnx+xOSso/TFQ4jpT68VU9dPrJQQPDT
fAiB22bAW1U=
-----END CERTIFICATE-----
